ccopy_reg
_reconstructor
p0
(cannotation
EventMap
p1
c__builtin__
object
p2
Ntp3
Rp4
(dp5
S'index'
p6
(dp7
S'Start-Position'
p8
I33
sS'LOC'
p9
I0
sS'Sue'
p10
I1
sS'Arrest-Jail'
p11
I2
sS'Injure'
p12
I3
sS'Phone-Write'
p13
I4
sS'Execute'
p14
I22
sS'PER'
p15
I6
sS'Crime'
p16
I7
sS'Attack'
p17
I8
sS'Acquit'
p18
I9
sS'End-Position'
p19
I11
sS'Meet'
p20
I30
sS'Convict'
p21
I13
sS'Appeal'
p22
I14
sS'Trial-Hearing'
p23
I15
sS'Extradite'
p24
I16
sS'Declare-Bankruptcy'
p25
I17
sS'Be-Born'
p26
I18
sS'Divorce'
p27
I19
sS'FAC'
p28
I20
sS'Start-Org'
p29
I21
sS'WEA'
p30
I5
sS'Release-Parole'
p31
I23
sS'Transfer-Ownership'
p32
I24
sS'Die'
p33
I25
sS'Marry'
p34
I26
sS'Contact-Info'
p35
I27
sS'Time'
p36
I28
sS'Transfer-Money'
p37
I29
sS'Demonstrate'
p38
I12
sS'Nominate'
p39
I31
sS'Job-Title'
p40
I32
sS'VEH'
p41
I10
sS'Elect'
p42
I34
sS'NIL'
p43
I36
sS'Pardon'
p44
I35
sS'Sentence'
p45
I37
sS'Merge-Org'
p46
I43
sS'Numeric'
p47
I39
sS'End-Org'
p48
I40
sS'GPE'
p49
I41
sS'ORG'
p50
I42
sS'Fine'
p51
I38
sS'Charge-Indict'
p52
I44
sS'Transport'
p53
I45
ssS'revIndex'
p54
(dp55
I0
g9
sI1
g10
sI2
g11
sI3
g12
sI4
g13
sI5
g30
sI6
g15
sI7
g16
sI8
g17
sI9
g18
sI10
g41
sI11
g19
sI12
g38
sI13
g21
sI14
g22
sI15
g23
sI16
g24
sI17
g25
sI18
g26
sI19
g27
sI20
g28
sI21
g29
sI22
g14
sI23
g31
sI24
g32
sI25
g33
sI26
g34
sI27
g35
sI28
g36
sI29
g37
sI30
g20
sI31
g39
sI32
g40
sI33
g8
sI34
g42
sI35
g44
sI36
g43
sI37
g45
sI38
g51
sI39
g47
sI40
g48
sI41
g49
sI42
g50
sI43
g46
sI44
g52
sI45
g53
ssb.