ccopy_reg
_reconstructor
p0
(cannotation
EventMap
p1
c__builtin__
object
p2
Ntp3
Rp4
(dp5
S'index'
p6
(dp7
S'LOC'
p8
I0
sS'WEA'
p9
I1
sS'Sentence'
p10
I2
sS'GPE'
p11
I3
sS'PER'
p12
I4
sS'Crime'
p13
I5
sS'Contact-Info'
p14
I6
sS'Numeric'
p15
I7
sS'Time'
p16
I8
sS'FAC'
p17
I9
sS'Job-Title'
p18
I10
sS'VEH'
p19
I11
sS'ORG'
p20
I12
ssS'revIndex'
p21
(dp22
I0
g8
sI1
g9
sI2
g10
sI3
g11
sI4
g12
sI5
g13
sI6
g14
sI7
g15
sI8
g16
sI9
g17
sI10
g18
sI11
g19
sI12
g20
ssb.