ccopy_reg
_reconstructor
p0
(cannotation
EventMap
p1
c__builtin__
object
p2
Ntp3
Rp4
(dp5
S'index'
p6
(dp7
S'Sue'
p8
I0
sS'Arrest-Jail'
p9
I1
sS'Injure'
p10
I2
sS'Phone-Write'
p11
I3
sS'Attack'
p12
I4
sS'Acquit'
p13
I5
sS'End-Position'
p14
I6
sS'Demonstrate'
p15
I22
sS'Convict'
p16
I8
sS'Appeal'
p17
I9
sS'Be-Born'
p18
I13
sS'Extradite'
p19
I11
sS'Declare-Bankruptcy'
p20
I12
sS'Trial-Hearing'
p21
I10
sS'Divorce'
p22
I14
sS'Start-Org'
p23
I15
sS'Execute'
p24
I16
sS'Release-Parole'
p25
I17
sS'Transfer-Ownership'
p26
I18
sS'Die'
p27
I19
sS'Marry'
p28
I20
sS'Transfer-Money'
p29
I21
sS'Meet'
p30
I7
sS'Nominate'
p31
I23
sS'Start-Position'
p32
I24
sS'Elect'
p33
I25
sS'NIL'
p34
I27
sS'Pardon'
p35
I26
sS'Sentence'
p36
I28
sS'Fine'
p37
I31
sS'End-Org'
p38
I30
sS'Merge-Org'
p39
I29
sS'Charge-Indict'
p40
I32
sS'Transport'
p41
I33
ssS'revIndex'
p42
(dp43
I0
g8
sI1
g9
sI2
g10
sI3
g11
sI4
g12
sI5
g13
sI6
g14
sI7
g30
sI8
g16
sI9
g17
sI10
g21
sI11
g19
sI12
g20
sI13
g18
sI14
g22
sI15
g23
sI16
g24
sI17
g25
sI18
g26
sI19
g27
sI20
g28
sI21
g29
sI22
g15
sI23
g31
sI24
g32
sI25
g33
sI26
g35
sI27
g34
sI28
g36
sI29
g39
sI30
g38
sI31
g37
sI32
g40
sI33
g41
ssb.